; Function Attrs: nounwind uwtable
define zeroext range(i8 0, 2) i8 @l___private_Lean_Compiler_IR_RC_0__Lean_IR_ExplicitRC_isBorrowParam(ptr noundef %0, ptr noundef readonly captures(none) %1, ptr noundef %2) local_unnamed_addr #0 {
  tail call void @lean_inc_heartbeat() #6
  %4 = tail call noalias ptr @mi_malloc_small(i64 noundef 32) #6
  %5 = icmp eq ptr %4, null
  br i1 %5, label %6, label %lean_alloc_closure.exit

6:                                                ; preds = %3
  tail call void @lean_internal_panic_out_of_memory() #7
  unreachable

lean_alloc_closure.exit:                          ; preds = %3
  %7 = getelementptr inbounds nuw i8, ptr %4, i64 4
  store i32 1, ptr %4, align 4, !tbaa !8
  store i32 -184549344, ptr %7, align 4
  %8 = getelementptr inbounds nuw i8, ptr %4, i64 8
  store ptr @l___private_Lean_Compiler_IR_RC_0__Lean_IR_ExplicitRC_isBorrowParam___lambda__1___boxed, ptr %8, align 8, !tbaa !4
  %9 = getelementptr inbounds nuw i8, ptr %4, i64 16
  store i16 2, ptr %9, align 8, !tbaa !16
  %10 = getelementptr inbounds nuw i8, ptr %4, i64 18
  store i16 1, ptr %10, align 2, !tbaa !16
  %11 = getelementptr inbounds nuw i8, ptr %4, i64 24
  store ptr %2, ptr %11, align 8, !tbaa !4
  %12 = getelementptr i8, ptr %1, i64 8
  %.val.i = load i64, ptr %12, align 8, !tbaa !13
  %13 = shl i64 %.val.i, 1
  %14 = or disjoint i64 %13, 1
  %15 = inttoptr i64 %14 to ptr
  %16 = tail call zeroext range(i8 0, 2) i8 @l_Nat_anyTR_loop___at___private_Lean_Compiler_IR_RC_0__Lean_IR_ExplicitRC_isBorrowParamAux___spec__1(ptr noundef %0, ptr noundef readonly %1, ptr noundef nonnull %4, ptr noundef nonnull %15, ptr noundef nonnull %15, ptr nonnull poison)
  ret i8 %16
}